target datalayout = "e-m:e-p270:32:32-p271:32:32-p272:64:64-i64:64-i128:128-f80:128-n8:16:32:64-S128"
target triple = "x86_64-pc-linux-gnu"

; Function Attrs: nounwind uwtable
define dso_local i64 @bb_granularity(i64 noundef %0, i64 noundef %1) #0 {
  %3 = alloca i64, align 8
  %4 = alloca i64, align 8
  store i64 %0, ptr %3, align 8
  store i64 %1, ptr %4, align 8
  %5 = load i64, ptr %3, align 8
  %6 = icmp ne i64 %5, 0
  br i1 %6, label %7, label %18

7:                                                ; preds = %2
  %8 = load i64, ptr %3, align 8
  %9 = load i64, ptr %4, align 8
  %10 = add i64 %8, %9
  %11 = sub i64 %10, 1
  store i64 %11, ptr %3, align 8
  %12 = load i64, ptr %4, align 8
  %13 = load i64, ptr %3, align 8
  %14 = udiv i64 %13, %12
  store i64 %14, ptr %3, align 8
  %15 = load i64, ptr %4, align 8
  %16 = load i64, ptr %3, align 8
  %17 = mul i64 %16, %15
  store i64 %17, ptr %3, align 8
  br label %18

18:                                               ; preds = %7, %2
  %19 = load i64, ptr %3, align 8
  ret i64 %19
}