; Function Attrs: mustprogress nofree norecurse nosync nounwind willreturn memory(none) uwtable
define dso_local i64 @bb_granularity(i64 noundef %0, i64 noundef %1) local_unnamed_addr #12 {
  %.not = icmp eq i64 %0, 0
  br i1 %.not, label %8, label %3

3:                                                ; preds = %2
  %4 = add i64 %0, -1
  %5 = add i64 %4, %1
  %6 = urem i64 %5, %1
  %7 = sub nuw i64 %5, %6
  br label %8

8:                                                ; preds = %3, %2
  %.0 = phi i64 [ %7, %3 ], [ 0, %2 ]
  ret i64 %.0
}